; Function Attrs: nounwind uwtable
define noalias nonnull ptr @l_Lean_Name_mkStr1(ptr noundef %0) local_unnamed_addr #0 {
  %.0.i.i = load i64, ptr @l_Lean_Name_hash___override___closed__1, align 8, !tbaa !17
  %2 = tail call i64 @lean_string_hash(ptr noundef %0) #11
  %3 = tail call i64 @lean_uint64_mix_hash(i64 noundef %.0.i.i, i64 noundef %2) #11
  tail call void @lean_inc_heartbeat() #11
  %4 = tail call noalias ptr @mi_malloc_small(i64 noundef 32) #11
  %5 = icmp eq ptr %4, null
  br i1 %5, label %6, label %l_Lean_Name_str___override.exit

6:                                                ; preds = %1
  tail call void @lean_internal_panic_out_of_memory() #12
  unreachable

l_Lean_Name_str___override.exit:                  ; preds = %1
  %7 = getelementptr inbounds nuw i8, ptr %4, i64 4
  store i32 1, ptr %4, align 4, !tbaa !4
  store i32 16908320, ptr %7, align 4
  %8 = getelementptr inbounds nuw i8, ptr %4, i64 8
  store ptr inttoptr (i64 1 to ptr), ptr %8, align 8, !tbaa !10
  %9 = getelementptr inbounds nuw i8, ptr %4, i64 16
  store ptr %0, ptr %9, align 8, !tbaa !10
  %10 = getelementptr inbounds nuw i8, ptr %4, i64 24
  store i64 %3, ptr %10, align 8, !tbaa !17
  ret ptr %4
}